target datalayout = "e-m:e-p270:32:32-p271:32:32-p272:64:64-i64:64-i128:128-f80:128-n8:16:32:64-S128"
target triple = "x86_64-pc-linux-gnu"

%struct.job_record = type { i32, ptr, ptr, ptr, ptr, i16, i32, i32, i32, ptr, i32, ptr, ptr, i16, ptr, double, i64, ptr, ptr, ptr, ptr, ptr, ptr, i32, ptr, i32, i64, i64, i32, i32, ptr, i16, i64, i64, i8, i32, ptr, ptr, ptr, ptr, ptr, ptr, ptr, ptr, i32, ptr, ptr, i32, ptr, i32, ptr, i32, ptr, i32, ptr, ptr, ptr, ptr, ptr, ptr, i32, i16, i64, ptr, ptr, ptr, ptr, %struct.acct_policy_limit_set_t, i16, ptr, ptr, ptr, ptr, ptr, i32, ptr, ptr, ptr, ptr, ptr, i32, i32, ptr, ptr, ptr, i16, ptr, ptr, i8, ptr, ptr, i64, i64, i8, i32, i32, i8, i32, ptr, i32, i64, i32, ptr, ptr, ptr, i8, i16, i64, i32, ptr, ptr, ptr, ptr, ptr, i16, i32, ptr, ptr, ptr, ptr, i32, ptr, i32, i16, i64, ptr, i32, i32, ptr, i64, ptr, ptr, i64, i32, i32, i64, i32, i32, ptr, ptr, ptr, ptr, ptr, ptr, ptr, ptr, ptr, ptr, ptr, ptr, i32, ptr, i16, i16, i16, i16, ptr, i32, i32, i8, i64 }
%struct.acct_policy_limit_set_t = type { i16, i16, ptr }
%struct.node_record = type { ptr, ptr, i16, i64, i64, ptr, ptr, ptr, i16, ptr, i16, i16, i32, i32, i64, ptr, i16, i16, ptr, ptr, ptr, ptr, ptr, i64, i64, ptr, ptr, ptr, ptr, i32, ptr, ptr, i64, i64, i32, ptr, i64, ptr, i32, i16, ptr, ptr, i32, ptr, i32, i8, ptr, i32, i16, i16, ptr, i16, i64, i16, i64, ptr, i64, i32, i16, i64, i16, ptr, i16, i64, ptr, i64, i16, i32, i16, ptr, ptr, ptr, i16, i32, i16, i16, i32, ptr, i16, i32 }
%struct.job_details_t = type { i32, ptr, i64, ptr, i32, ptr, i64, ptr, i16, i16, ptr, i16, i32, i32, i32, i16, ptr, i16, ptr, ptr, ptr, i16, ptr, ptr, ptr, ptr, i32, ptr, ptr, ptr, ptr, ptr, i32, i32, i32, ptr, ptr, i16, i32, i32, i32, i32, i32, i32, i16, i16, i32, i8, i8, i32, i32, i64, i64, i16, i32, ptr, ptr, i8, ptr, i32, ptr, i64, ptr, ptr, i16, i16, i16, i8, ptr, ptr, ptr, ptr, ptr, ptr, i64, i32, i32, i8, ptr, i16, ptr, ptr, i16 }
%struct.foreach_filter_by_node_t = type { ptr, ptr }
%struct.part_record = type { i32, ptr, ptr, ptr, ptr, ptr, ptr, i32, ptr, ptr, ptr, ptr, ptr, i32, i64, i32, ptr, ptr, ptr, ptr, ptr, i32, i32, ptr, i32, i32, i64, i32, i32, i16, i32, i32, i32, i32, ptr, ptr, ptr, ptr, ptr, double, i16, i16, i16, i16, ptr, ptr, i16, i16, i32, i16, i32, i32, i32, i32, i16, ptr, ptr, ptr }

@job_list = external global ptr, align 8

; Function Attrs: nounwind uwtable
define dso_local void @filter_by_node_owner(ptr noundef %0, ptr noundef %1) #0 {
  %3 = alloca ptr, align 8
  %4 = alloca ptr, align 8
  %5 = alloca ptr, align 8
  %6 = alloca i32, align 4
  %7 = alloca %struct.foreach_filter_by_node_t, align 8
  %8 = alloca i32, align 4
  store ptr %0, ptr %3, align 8
  store ptr %1, ptr %4, align 8
  call void @llvm.lifetime.start.p0(i64 8, ptr %5) #8
  call void @llvm.lifetime.start.p0(i64 4, ptr %6) #8
  call void @llvm.lifetime.start.p0(i64 16, ptr %7) #8
  %9 = getelementptr inbounds nuw %struct.foreach_filter_by_node_t, ptr %7, i32 0, i32 0
  %10 = load ptr, ptr %3, align 8
  store ptr %10, ptr %9, align 8
  %11 = getelementptr inbounds nuw %struct.foreach_filter_by_node_t, ptr %7, i32 0, i32 1
  %12 = load ptr, ptr %4, align 8
  store ptr %12, ptr %11, align 8
  %13 = load ptr, ptr %3, align 8
  %14 = getelementptr inbounds nuw %struct.job_record, ptr %13, i32 0, i32 30
  %15 = load ptr, ptr %14, align 8
  %16 = getelementptr inbounds nuw %struct.job_details_t, ptr %15, i32 0, i32 77
  %17 = load i8, ptr %16, align 8
  %18 = zext i8 %17 to i32
  %19 = and i32 %18, 2
  %20 = icmp ne i32 %19, 0
  br i1 %20, label %30, label %21

21:                                               ; preds = %2
  %22 = load ptr, ptr %3, align 8
  %23 = getelementptr inbounds nuw %struct.job_record, ptr %22, i32 0, i32 89
  %24 = load ptr, ptr %23, align 8
  %25 = getelementptr inbounds nuw %struct.part_record, ptr %24, i32 0, i32 21
  %26 = load i32, ptr %25, align 8
  %27 = zext i32 %26 to i64
  %28 = and i64 %27, 64
  %29 = icmp ne i64 %28, 0
  br i1 %29, label %30, label %33

30:                                               ; preds = %21, %2
  %31 = load ptr, ptr @job_list, align 8
  %32 = call i32 @list_for_each(ptr noundef %31, ptr noundef @_foreach_filter_by_node_owner, ptr noundef %7)
  store i32 1, ptr %8, align 4
  br label %61

33:                                               ; preds = %21
  store i32 0, ptr %6, align 4
  br label %34

34:                                               ; preds = %57, %33
  %35 = call ptr @next_node(ptr noundef %6)
  store ptr %35, ptr %5, align 8
  %36 = icmp ne ptr %35, null
  br i1 %36, label %37, label %60

37:                                               ; preds = %34
  %38 = load ptr, ptr %5, align 8
  %39 = getelementptr inbounds nuw %struct.node_record, ptr %38, i32 0, i32 47
  %40 = load i32, ptr %39, align 8
  %41 = icmp ne i32 %40, -2
  br i1 %41, label %42, label %56

42:                                               ; preds = %37
  %43 = load ptr, ptr %5, align 8
  %44 = getelementptr inbounds nuw %struct.node_record, ptr %43, i32 0, i32 47
  %45 = load i32, ptr %44, align 8
  %46 = load ptr, ptr %3, align 8
  %47 = getelementptr inbounds nuw %struct.job_record, ptr %46, i32 0, i32 150
  %48 = load i32, ptr %47, align 8
  %49 = icmp ne i32 %45, %48
  br i1 %49, label %50, label %56

50:                                               ; preds = %42
  %51 = load ptr, ptr %4, align 8
  %52 = load ptr, ptr %5, align 8
  %53 = getelementptr inbounds nuw %struct.node_record, ptr %52, i32 0, i32 29
  %54 = load i32, ptr %53, align 8
  %55 = zext i32 %54 to i64
  call void @bit_clear(ptr noundef %51, i64 noundef %55)
  br label %56

56:                                               ; preds = %50, %42, %37
  br label %57

57:                                               ; preds = %56
  %58 = load i32, ptr %6, align 4
  %59 = add nsw i32 %58, 1
  store i32 %59, ptr %6, align 4
  br label %34, !llvm.loop !21

60:                                               ; preds = %34
  store i32 0, ptr %8, align 4
  br label %61

61:                                               ; preds = %60, %30
  call void @llvm.lifetime.end.p0(i64 16, ptr %7) #8
  call void @llvm.lifetime.end.p0(i64 4, ptr %6) #8
  call void @llvm.lifetime.end.p0(i64 8, ptr %5) #8
  %62 = load i32, ptr %8, align 4
  switch i32 %62, label %64 [
    i32 0, label %63
    i32 1, label %63
  ]

63:                                               ; preds = %61, %61
  ret void

64:                                               ; preds = %61
  unreachable
}