; Function Attrs: nounwind uwtable
define dso_local void @filter_by_node_owner(ptr noundef %0, ptr noundef %1) local_unnamed_addr #0 {
  %3 = alloca i32, align 4
  %4 = alloca %struct.foreach_filter_by_node_t, align 8
  call void @llvm.lifetime.start.p0(i64 4, ptr nonnull %3) #14
  call void @llvm.lifetime.start.p0(i64 16, ptr nonnull %4) #14
  store ptr %0, ptr %4, align 8
  %5 = getelementptr inbounds nuw i8, ptr %4, i64 8
  store ptr %1, ptr %5, align 8
  %6 = getelementptr inbounds nuw i8, ptr %0, i64 216
  %7 = load ptr, ptr %6, align 8
  %8 = getelementptr inbounds nuw i8, ptr %7, i64 480
  %9 = load i8, ptr %8, align 8
  %10 = and i8 %9, 2
  %.not = icmp eq i8 %10, 0
  br i1 %.not, label %11, label %19

11:                                               ; preds = %2
  %12 = getelementptr inbounds nuw i8, ptr %0, i64 672
  %13 = load ptr, ptr %12, align 8
  %14 = getelementptr inbounds nuw i8, ptr %13, i64 168
  %15 = load i32, ptr %14, align 8
  %16 = and i32 %15, 64
  %.not10 = icmp eq i32 %16, 0
  br i1 %.not10, label %.preheader, label %19

.preheader:                                       ; preds = %11
  store i32 0, ptr %3, align 4
  %17 = call ptr @next_node(ptr noundef nonnull %3) #14
  %.not1114 = icmp eq ptr %17, null
  br i1 %.not1114, label %.loopexit, label %.lr.ph

.lr.ph:                                           ; preds = %.preheader
  %18 = getelementptr inbounds nuw i8, ptr %0, i64 1096
  br label %22

19:                                               ; preds = %11, %2
  %20 = load ptr, ptr @job_list, align 8
  %21 = call i32 @list_for_each(ptr noundef %20, ptr noundef nonnull @_foreach_filter_by_node_owner, ptr noundef nonnull %4) #14
  br label %.loopexit

22:                                               ; preds = %.lr.ph, %32
  %23 = phi ptr [ %17, %.lr.ph ], [ %35, %32 ]
  %24 = getelementptr inbounds nuw i8, ptr %23, i64 336
  %25 = load i32, ptr %24, align 8
  %.not12 = icmp eq i32 %25, -2
  br i1 %.not12, label %32, label %26

26:                                               ; preds = %22
  %27 = load i32, ptr %18, align 8
  %.not13 = icmp eq i32 %25, %27
  br i1 %.not13, label %32, label %28

28:                                               ; preds = %26
  %29 = getelementptr inbounds nuw i8, ptr %23, i64 208
  %30 = load i32, ptr %29, align 8
  %31 = zext i32 %30 to i64
  call void @bit_clear(ptr noundef %1, i64 noundef %31) #14
  br label %32

32:                                               ; preds = %22, %26, %28
  %33 = load i32, ptr %3, align 4
  %34 = add nsw i32 %33, 1
  store i32 %34, ptr %3, align 4
  %35 = call ptr @next_node(ptr noundef nonnull %3) #14
  %.not11 = icmp eq ptr %35, null
  br i1 %.not11, label %.loopexit, label %22, !llvm.loop !21

.loopexit:                                        ; preds = %32, %.preheader, %19
  call void @llvm.lifetime.end.p0(i64 16, ptr nonnull %4) #14
  call void @llvm.lifetime.end.p0(i64 4, ptr nonnull %3) #14
  ret void
}